; Function Attrs: nofree norecurse nosync nounwind memory(readwrite, inaccessiblemem: none) uwtable
define void @Gia_ManRestoreNodeMapping(ptr noundef readonly captures(none) %0, ptr noundef readnone captures(none) %1) local_unnamed_addr #10 {
  %3 = getelementptr inbounds nuw i8, ptr %0, i64 32
  %4 = load ptr, ptr %3, align 8, !tbaa !76
  %5 = getelementptr i8, ptr %4, i64 4
  %.val9 = load i32, ptr %5, align 4, !tbaa !14
  %6 = icmp sgt i32 %.val9, 0
  br i1 %6, label %.lr.ph, label %.critedge

.lr.ph:                                           ; preds = %2, %15
  %7 = phi ptr [ %16, %15 ], [ %4, %2 ]
  %indvars.iv = phi i64 [ %indvars.iv.next, %15 ], [ 0, %2 ]
  %8 = getelementptr i8, ptr %7, i64 8
  %.val8 = load ptr, ptr %8, align 8, !tbaa !16
  %9 = getelementptr inbounds nuw ptr, ptr %.val8, i64 %indvars.iv
  %10 = load ptr, ptr %9, align 8, !tbaa !17
  %11 = icmp eq ptr %10, null
  br i1 %11, label %15, label %12

12:                                               ; preds = %.lr.ph
  %13 = getelementptr inbounds nuw i8, ptr %10, i64 40
  %indvars.iv.tr = trunc i64 %indvars.iv to i32
  %14 = shl i32 %indvars.iv.tr, 1
  store i32 %14, ptr %13, align 8, !tbaa !92
  %.pre = load ptr, ptr %3, align 8, !tbaa !76
  br label %15

15:                                               ; preds = %12, %.lr.ph
  %16 = phi ptr [ %.pre, %12 ], [ %7, %.lr.ph ]
  %indvars.iv.next = add nuw nsw i64 %indvars.iv, 1
  %17 = getelementptr i8, ptr %16, i64 4
  %.val = load i32, ptr %17, align 4, !tbaa !14
  %18 = sext i32 %.val to i64
  %19 = icmp slt i64 %indvars.iv.next, %18
  br i1 %19, label %.lr.ph, label %.critedge, !llvm.loop !93

.critedge:                                        ; preds = %15, %2
  ret void
}